; Function Attrs: mustprogress uwtable
define internal void @_ZL10forward_4dR8PJ_COORDP8PJconsts(ptr noundef nonnull align 8 captures(none) dereferenceable(32) %0, ptr noundef readonly captures(none) %1) #0 {
  %3 = getelementptr inbounds nuw i8, ptr %1, i64 88
  %4 = load ptr, ptr %3, align 8, !tbaa !40
  %.sroa.016.0.copyload = load double, ptr %0, align 8, !tbaa !68
  %.sroa.2.0..sroa_idx = getelementptr inbounds nuw i8, ptr %0, i64 8
  %.sroa.2.0.copyload = load double, ptr %.sroa.2.0..sroa_idx, align 8, !tbaa !68
  %.sroa.3.0..sroa_idx = getelementptr inbounds nuw i8, ptr %0, i64 16
  %.sroa.3.0.copyload = load double, ptr %.sroa.3.0..sroa_idx, align 8, !tbaa !68
  %5 = getelementptr inbounds nuw i8, ptr %4, i64 8
  %6 = load double, ptr %5, align 8, !tbaa !52, !noalias !69
  %7 = fmul double %.sroa.016.0.copyload, %6
  %8 = fmul double %.sroa.2.0.copyload, %6
  %9 = getelementptr inbounds nuw i8, ptr %4, i64 16
  %10 = load double, ptr %9, align 8, !tbaa !53, !noalias !69
  %11 = fmul double %.sroa.3.0.copyload, %10
  store double %7, ptr %0, align 8, !tbaa !68
  store double %8, ptr %.sroa.2.0..sroa_idx, align 8, !tbaa !68
  store double %11, ptr %.sroa.3.0..sroa_idx, align 8, !tbaa !68
  %12 = load i32, ptr %4, align 8, !tbaa !49
  %13 = icmp sgt i32 %12, -1
  br i1 %13, label %14, label %21

14:                                               ; preds = %2
  %15 = zext nneg i32 %12 to i64
  %16 = getelementptr inbounds nuw [5 x %"struct.(anonymous namespace)::TIME_UNITS"], ptr @_ZL10time_units, i64 0, i64 %15, i32 1
  %17 = load ptr, ptr %16, align 8, !tbaa !72
  %18 = getelementptr inbounds nuw i8, ptr %0, i64 24
  %19 = load double, ptr %18, align 8, !tbaa !73
  %20 = tail call noundef double %17(double noundef %19)
  store double %20, ptr %18, align 8, !tbaa !73
  br label %21

21:                                               ; preds = %14, %2
  %22 = getelementptr inbounds nuw i8, ptr %4, i64 4
  %23 = load i32, ptr %22, align 4, !tbaa !51
  %24 = icmp sgt i32 %23, -1
  br i1 %24, label %25, label %32

25:                                               ; preds = %21
  %26 = zext nneg i32 %23 to i64
  %27 = getelementptr inbounds nuw [5 x %"struct.(anonymous namespace)::TIME_UNITS"], ptr @_ZL10time_units, i64 0, i64 %26, i32 2
  %28 = load ptr, ptr %27, align 16, !tbaa !74
  %29 = getelementptr inbounds nuw i8, ptr %0, i64 24
  %30 = load double, ptr %29, align 8, !tbaa !73
  %31 = tail call noundef double %28(double noundef %30)
  store double %31, ptr %29, align 8, !tbaa !73
  br label %32

32:                                               ; preds = %25, %21
  ret void
}